; ModuleID = '11/278.c'
source_filename = "11/278.c"
target datalayout = "e-m:e-p270:32:32-p271:32:32-p272:64:64-i64:64-f80:128-n8:16:32:64-S128"
target triple = "x86_64-pc-linux-gnu"

@.str = private unnamed_addr constant [9 x i8] c"%d %d %d\00", align 1
@.str.1 = private unnamed_addr constant [4 x i8] c"%d\0A\00", align 1

; Function Attrs: noinline nounwind uwtable
define dso_local i32 @main() #0 {
  %1 = alloca i32, align 4
  %2 = alloca [5 x i32], align 16
  %3 = alloca [5 x i32], align 16
  %4 = alloca [5 x i32], align 16
  %5 = alloca [5 x i32], align 16
  %6 = alloca i32, align 4
  store i32 0, i32* %1, align 4
  store i32 0, i32* %6, align 4
  br label %7

7:                                                ; preds = %21, %0
  %8 = load i32, i32* %6, align 4
  %9 = icmp slt i32 %8, 5
  br i1 %9, label %10, label %24

10:                                               ; preds = %7
  %11 = load i32, i32* %6, align 4
  %12 = sext i32 %11 to i64
  %13 = getelementptr inbounds [5 x i32], [5 x i32]* %2, i64 0, i64 %12
  %14 = load i32, i32* %6, align 4
  %15 = sext i32 %14 to i64
  %16 = getelementptr inbounds [5 x i32], [5 x i32]* %3, i64 0, i64 %15
  %17 = load i32, i32* %6, align 4
  %18 = sext i32 %17 to i64
  %19 = getelementptr inbounds [5 x i32], [5 x i32]* %4, i64 0, i64 %18
  %20 = call i32 (i8*, ...) @__isoc99_scanf(i8* getelementptr inbounds ([9 x i8], [9 x i8]* @.str, i64 0, i64 0), i32* %13, i32* %16, i32* %19)
  br label %21

21:                                               ; preds = %10
  %22 = load i32, i32* %6, align 4
  %23 = add nsw i32 %22, 1
  store i32 %23, i32* %6, align 4
  br label %7

24:                                               ; preds = %7
  store i32 0, i32* %6, align 4
  br label %25

25:                                               ; preds = %130, %24
  %26 = load i32, i32* %6, align 4
  %27 = icmp slt i32 %26, 5
  br i1 %27, label %28, label %133

28:                                               ; preds = %25
  %29 = load i32, i32* %6, align 4
  %30 = sext i32 %29 to i64
  %31 = getelementptr inbounds [5 x i32], [5 x i32]* %3, i64 0, i64 %30
  %32 = load i32, i32* %31, align 4
  switch i32 %32, label %81 [
    i32 1, label %33
    i32 2, label %37
    i32 3, label %41
    i32 4, label %45
    i32 5, label %49
    i32 6, label %53
    i32 7, label %57
    i32 8, label %61
    i32 9, label %65
    i32 10, label %69
    i32 11, label %73
    i32 12, label %77
  ]

33:                                               ; preds = %28
  %34 = load i32, i32* %6, align 4
  %35 = sext i32 %34 to i64
  %36 = getelementptr inbounds [5 x i32], [5 x i32]* %5, i64 0, i64 %35
  store i32 0, i32* %36, align 4
  br label %81

37:                                               ; preds = %28
  %38 = load i32, i32* %6, align 4
  %39 = sext i32 %38 to i64
  %40 = getelementptr inbounds [5 x i32], [5 x i32]* %5, i64 0, i64 %39
  store i32 31, i32* %40, align 4
  br label %81

41:                                               ; preds = %28
  %42 = load i32, i32* %6, align 4
  %43 = sext i32 %42 to i64
  %44 = getelementptr inbounds [5 x i32], [5 x i32]* %5, i64 0, i64 %43
  store i32 59, i32* %44, align 4
  br label %81

45:                                               ; preds = %28
  %46 = load i32, i32* %6, align 4
  %47 = sext i32 %46 to i64
  %48 = getelementptr inbounds [5 x i32], [5 x i32]* %5, i64 0, i64 %47
  store i32 90, i32* %48, align 4
  br label %81

49:                                               ; preds = %28
  %50 = load i32, i32* %6, align 4
  %51 = sext i32 %50 to i64
  %52 = getelementptr inbounds [5 x i32], [5 x i32]* %5, i64 0, i64 %51
  store i32 120, i32* %52, align 4
  br label %81

53:                                               ; preds = %28
  %54 = load i32, i32* %6, align 4
  %55 = sext i32 %54 to i64
  %56 = getelementptr inbounds [5 x i32], [5 x i32]* %5, i64 0, i64 %55
  store i32 151, i32* %56, align 4
  br label %81

57:                                               ; preds = %28
  %58 = load i32, i32* %6, align 4
  %59 = sext i32 %58 to i64
  %60 = getelementptr inbounds [5 x i32], [5 x i32]* %5, i64 0, i64 %59
  store i32 181, i32* %60, align 4
  br label %81

61:                                               ; preds = %28
  %62 = load i32, i32* %6, align 4
  %63 = sext i32 %62 to i64
  %64 = getelementptr inbounds [5 x i32], [5 x i32]* %5, i64 0, i64 %63
  store i32 212, i32* %64, align 4
  br label %81

65:                                               ; preds = %28
  %66 = load i32, i32* %6, align 4
  %67 = sext i32 %66 to i64
  %68 = getelementptr inbounds [5 x i32], [5 x i32]* %5, i64 0, i64 %67
  store i32 243, i32* %68, align 4
  br label %81

69:                                               ; preds = %28
  %70 = load i32, i32* %6, align 4
  %71 = sext i32 %70 to i64
  %72 = getelementptr inbounds [5 x i32], [5 x i32]* %5, i64 0, i64 %71
  store i32 273, i32* %72, align 4
  br label %81

73:                                               ; preds = %28
  %74 = load i32, i32* %6, align 4
  %75 = sext i32 %74 to i64
  %76 = getelementptr inbounds [5 x i32], [5 x i32]* %5, i64 0, i64 %75
  store i32 304, i32* %76, align 4
  br label %81

77:                                               ; preds = %28
  %78 = load i32, i32* %6, align 4
  %79 = sext i32 %78 to i64
  %80 = getelementptr inbounds [5 x i32], [5 x i32]* %5, i64 0, i64 %79
  store i32 334, i32* %80, align 4
  br label %81

81:                                               ; preds = %28, %77, %73, %69, %65, %61, %57, %53, %49, %45, %41, %37, %33
  %82 = load i32, i32* %6, align 4
  %83 = sext i32 %82 to i64
  %84 = getelementptr inbounds [5 x i32], [5 x i32]* %5, i64 0, i64 %83
  %85 = load i32, i32* %84, align 4
  %86 = load i32, i32* %6, align 4
  %87 = sext i32 %86 to i64
  %88 = getelementptr inbounds [5 x i32], [5 x i32]* %4, i64 0, i64 %87
  %89 = load i32, i32* %88, align 4
  %90 = add nsw i32 %85, %89
  %91 = load i32, i32* %6, align 4
  %92 = sext i32 %91 to i64
  %93 = getelementptr inbounds [5 x i32], [5 x i32]* %5, i64 0, i64 %92
  store i32 %90, i32* %93, align 4
  %94 = load i32, i32* %6, align 4
  %95 = sext i32 %94 to i64
  %96 = getelementptr inbounds [5 x i32], [5 x i32]* %2, i64 0, i64 %95
  %97 = load i32, i32* %96, align 4
  %98 = srem i32 %97, 4
  %99 = icmp eq i32 %98, 0
  br i1 %99, label %100, label %107

100:                                              ; preds = %81
  %101 = load i32, i32* %6, align 4
  %102 = sext i32 %101 to i64
  %103 = getelementptr inbounds [5 x i32], [5 x i32]* %2, i64 0, i64 %102
  %104 = load i32, i32* %103, align 4
  %105 = srem i32 %104, 100
  %106 = icmp ne i32 %105, 0
  br i1 %106, label %114, label %107

107:                                              ; preds = %100, %81
  %108 = load i32, i32* %6, align 4
  %109 = sext i32 %108 to i64
  %110 = getelementptr inbounds [5 x i32], [5 x i32]* %2, i64 0, i64 %109
  %111 = load i32, i32* %110, align 4
  %112 = srem i32 %111, 400
  %113 = icmp eq i32 %112, 0
  br i1 %113, label %114, label %129

114:                                              ; preds = %107, %100
  %115 = load i32, i32* %6, align 4
  %116 = sext i32 %115 to i64
  %117 = getelementptr inbounds [5 x i32], [5 x i32]* %3, i64 0, i64 %116
  %118 = load i32, i32* %117, align 4
  %119 = icmp sgt i32 %118, 2
  br i1 %119, label %120, label %129

120:                                              ; preds = %114
  %121 = load i32, i32* %6, align 4
  %122 = sext i32 %121 to i64
  %123 = getelementptr inbounds [5 x i32], [5 x i32]* %5, i64 0, i64 %122
  %124 = load i32, i32* %123, align 4
  %125 = add nsw i32 %124, 1
  %126 = load i32, i32* %6, align 4
  %127 = sext i32 %126 to i64
  %128 = getelementptr inbounds [5 x i32], [5 x i32]* %5, i64 0, i64 %127
  store i32 %125, i32* %128, align 4
  br label %129

129:                                              ; preds = %120, %114, %107
  br label %130

130:                                              ; preds = %129
  %131 = load i32, i32* %6, align 4
  %132 = add nsw i32 %131, 1
  store i32 %132, i32* %6, align 4
  br label %25

133:                                              ; preds = %25
  store i32 0, i32* %6, align 4
  br label %134

134:                                              ; preds = %143, %133
  %135 = load i32, i32* %6, align 4
  %136 = icmp slt i32 %135, 5
  br i1 %136, label %137, label %146

137:                                              ; preds = %134
  %138 = load i32, i32* %6, align 4
  %139 = sext i32 %138 to i64
  %140 = getelementptr inbounds [5 x i32], [5 x i32]* %5, i64 0, i64 %139
  %141 = load i32, i32* %140, align 4
  %142 = call i32 (i8*, ...) @printf(i8* getelementptr inbounds ([4 x i8], [4 x i8]* @.str.1, i64 0, i64 0), i32 %141)
  br label %143

143:                                              ; preds = %137
  %144 = load i32, i32* %6, align 4
  %145 = add nsw i32 %144, 1
  store i32 %145, i32* %6, align 4
  br label %134

146:                                              ; preds = %134
  ret i32 0
}

declare dso_local i32 @__isoc99_scanf(i8*, ...) #1

declare dso_local i32 @printf(i8*, ...) #1


!llvm.module.flags = !{!0}
!llvm.ident = !{!1}

!0 = !{i32 1, !"wchar_size", i32 4}
!1 = !{!"clang version 10.0.0-4ubuntu1 "}
